target datalayout = "e-m:e-p270:32:32-p271:32:32-p272:64:64-i64:64-i128:128-f80:128-n8:16:32:64-S128"
target triple = "x86_64-pc-linux-gnu"

%struct.LeafList = type { ptr, ptr }

; Function Attrs: nounwind uwtable
define ptr @RTreeNewLeafList(ptr noundef %0) #0 {
  %2 = alloca ptr, align 8
  %3 = alloca ptr, align 8
  store ptr %0, ptr %2, align 8, !tbaa !3
  call void @llvm.lifetime.start.p0(i64 8, ptr %3) #6
  %4 = call noalias ptr @calloc(i64 noundef 1, i64 noundef 16) #7
  store ptr %4, ptr %3, align 8, !tbaa !8
  %5 = icmp ne ptr %4, null
  br i1 %5, label %6, label %12

6:                                                ; preds = %1
  %7 = load ptr, ptr %2, align 8, !tbaa !3
  %8 = load ptr, ptr %3, align 8, !tbaa !8
  %9 = getelementptr inbounds nuw %struct.LeafList, ptr %8, i32 0, i32 1
  store ptr %7, ptr %9, align 8, !tbaa !10
  %10 = load ptr, ptr %3, align 8, !tbaa !8
  %11 = getelementptr inbounds nuw %struct.LeafList, ptr %10, i32 0, i32 0
  store ptr null, ptr %11, align 8, !tbaa !12
  br label %12

12:                                               ; preds = %6, %1
  %13 = load ptr, ptr %3, align 8, !tbaa !8
  call void @llvm.lifetime.end.p0(i64 8, ptr %3) #6
  ret ptr %13
}